                           
   Home | Information Services | Research and Publications | e-Learning | Conferences and Seminars   	              	 
 
 	  
 	 	  
 
   ISN : Information Services : 	  
 	 
         
            
  	     Links Library	  
 
   	     
 	Link Map
 	 
 	Regions
 	 

Subjects
 	 

Directories
 	   
 	Current World
Affairs Links
 	  

New Links
 	 

Add a Link
 	 

Subscribe to
ISN Info
 	 

Selection
Policies
 	   
   	    
       	              
                      
  New Links	 

The following list contains resources newly added to the ISN Links Library     
       Iran Chamber Society                    This society was founded in order to bring Iranologists and those scholars who are concerned with Iran together under one roof. This site provides information on Iranian history, art, and culture.
       Added to:         [Iran]     
       (ID 10064)      
    
       Historic Personalities: Ayatollah Seyed Ali Khamenei                    This site, maintained by the Iran Chamber Society, offers information on the religious and political career of Ayatollah Ali Khamenei, the Supreme Leader of the Islamic Republic.
       Added to:         [Parliamentary Elections: Iran]     
       (ID 10063)      
    
       Profile: Ayatollah Ali Khamenei, by The BBC                    This article, last updated on 30 June 2003, on the position and main political acts of Ayatollah Ali Khamenei, the spiritual leader and highest authority in the Islamic Republic of Iran.
       Added to:         [Parliamentary Elections: Iran]     
       (ID 10062)      
    
       Biography of President Mohammad Khatami                    This official site of the the Presidency of the Islamic Republic of Iran provides biographical information on the political and personal background of the fifth President of the Republic, Mohammad Khatami.
       Added to:         [Parliamentary Elections: Iran]     
       (ID 10061)      
    
       History of the conflict - and what is at stake, by The Guardian                    Article of 13 January 2004 explaining why the crisis between the conservative clerics and the reformist forces has come about and appraising how serious it is.
       Added to:         [Parliamentary Elections: Iran]     
       (ID 10060)      
    
       'Instability will not just affect Iranians', by The Guardian                    Article of 15 January 2004 saying that the decision to count out the reformist candidates and members of parliament is threatening democracy.
       Added to:         [Parliamentary Elections: Iran]     
       (ID 10059)      
    
       The Munich Re Internet Forum                    The Munich Reinsurance Company offers articles and statements on topics such as natural or technical disasters, which are relevant to the world of insurance.
       Added to:         [Natural and Technical Disasters]     
       (ID 10057)      
    
       High-Rise Buildings                    This report, offered by the Munich Reinsurance Company, provides information on the risk potential related to high-rise buildings. These risks might emanate from natural disasters or terrorist activities.
       Added to:         [Environmental Security]          [Natural and Technical Disasters]          [Interdisciplinary Issues]          [Risk Management]          [Strategies of Terrorism]     
       (ID 10056)      
    
       Losses and Loss Prevention                    This publication of the Munich Reinsurance Company on losses and loss prevention focuses on catastrophes in international shipping, oil tanks on fire, earthquakes, and floods. Many photos and some graphics are added to this report issued in 2003.
       Added to:         [Environmental Security]          [Natural and Technical Disasters]          [Interdisciplinary Issues]          [Risk Management]     
       (ID 10055)      
    
       Annual Review: Natural Catastrophes 2002                             This report, provided by the Munich Reinsurance Company, offers information on major natural, engineering, and fire catastrophes in 2002 and on trends of great natural catastrophes since 1950. Several pictures, graphics, and statistics are added to the written background information.
       Added to:         [Environmental Security]          [Natural and Technical Disasters]          [Germany]          [Interdisciplinary Issues]          [Risk Management]     
       (ID 10054)      
    
       National Commission on Terrorist Attacks Upon the United States                    Homepage of the bipartisan commission established to prepare a full account of the circumstances surrounding the September 11 terrorist attacks. The Commission is also mandated to provide recommendations designed to guard against future attacks.
       Added to:         [Counterterrorism]          [Terrorist Attacks]          [Terrorism Policy]     
       (ID 10046)      
    
       Terrorism's Impact on Civil Liberties                    News stories and in-depth articles on the impact of terrorism on privacy and other civil liberties in the US and overseas. This page is part of the Freedom of Information Center which specializes in research, education, and promotion of the public's right to government accountability.
       Added to:         [Terrorism Policy]     
       (ID 10045)      
    
       Counterrorism Policy                             Legal statements, reports, and congressional hearings on US conterterrorism policy. Also provides links to terrorism-related materials from NATO, the UN, and national governments.
       Added to:         [Organized Crime]          [Counterterrorism]          [Terrorism Documents]          [Terrorism Policy]     
       (ID 10044)      
    
       Report to Congress Regarding the Terrorism Information Awareness Program                    Report by the Defense Advanced Research Project Agency (DARPA) on the Terrorism Information Awareness (TIA) Program. This is a prototype network uses decision support tools, language translation, data search, pattern recognition, and privacy protection technologies to combat terrorism.
       Added to:         [Counterterrorism]          [Terrorism Documents]     
       (ID 10043)      
    
       Counter-Terrorism, by the Canadian Security Intelligence Service                    Information on the nature of the terrorist threat to Canada and the intelligence services' role and response to these threats.
       Added to:         [Counterterrorism]          [Terrorism Policy]     
       (ID 10042)      
    
       Bill C-36, by the Parliament of Canada                             Antiterror act amending the Canadian Criminal Code, the Official Secrets Act, the Canada Evidence Act, the Proceeds of Crime (Money Laundering) Act, and a number of other Acts in order to combat terrorism.
       Added to:         [Counterterrorism]          [Terrorism Documents]          [Terrorism Policy]     
       (ID 10041)      
    
       Government of Canada Introduces Anti-Terrorism Act                                      This Canadian government site provides information on counterterrorism legislation by the Canadian government.
       Added to:         [Counterterrorism]          [Terrorism Documents]          [Terrorism Policy]     
       (ID 10040)      
    
       International Contributions to the War Against Terrorism                    Fact sheet issued by the US Department of Defence listing contributions by other countries to the war on terror.
       Added to:         [Counterterrorism]          [Terrorism Documents]          [Terrorism Policy]     
       (ID 10039)      
    
       Legislation, by National Security Australia                    Access to recent government acts intended to strengthen Australia's national security.
       Added to:         [Terrorism Policy]     
       (ID 10038)      
    
       Listing of Terrorist Organizations, by National Security Australia                    Information on the 16 organizations officialy listed as terrorist organizations by the Australian government. Also included are government press releases relevant to these organizations.
       Added to:         [Terrorist Groups, Organizations, and Networks]     
       (ID 10037)      
    
       Australian National Counter-Terrorism Plan                    Report of June 2003 by the Australian National Counter-Terrorism Committee outlining responsibilities, authorities, and the mechanisms to prevent, or if they occur, manage acts of terrorism and their consequences within Australia.
       Added to:         [Counterterrorism]          [Terrorism Documents]          [Terrorism Policy]     
       (ID 10036)      
    
       Australian Security Intelligence Organisation Legislation Amendment (Terrorism) Bill 2002 and Related Matters                    Amendment of the Australian Security Intelligence Organisation Act with the intention of broadening the ability of the Australian Security Intelligence Organisation (ASIO) to deal with terrorism.
       Added to:         [Counterterrorism]          [Terrorism Documents]          [Terrorism Policy]     
       (ID 10035)      
    
       Combating Terrorism: Department of State Programs to Combat Terrorism Abroad                    Report by the US General Accounting Office (GAO) to Congressional Committees overseeing the State Department's programs and activities to combating terrorism. The report focuses on programs to prevent terrorist attacks, disrupt and destory terrorist organizations, and respond to terrorist incidents.
       Added to:         [Counterterrorism]          [Terrorism Documents]     
       (ID 10034)      
    
       Bioterrorism: Information Technology Strategy Could Strengthen Federal Agencies' Abilities to Respond to Public Health Emergencies                    Report by the US General Accounting Office (GAO) examining how IT could be used to support a publlic health emergency such as a bioterrorist attack. The report also looks at the readiness and IT initiatives of federal agencies to cope with such an incident.
       Added to:         [Chemical and Biological Terrorism]     
       (ID 10033)      
    
       Terrorism: Near Eastern Groups and State Sponsors, 2002                    Report produced by the Congressional Research Service of the Library of Congress examining terrorist groups and state sponsors of terrorism in the Near East. The report looks at radical Islamic, Jewish, left-wing, and nationalist groups as well as US counterterrorism options in the region.
       Added to:         [Counterterrorism]          [Terrorist Groups, Organizations, and Networks]          [Terrorism Documents]          [State-Sponsored Terrorism]     
       (ID 10032)      
    
       Re-thinking Terrorism in Light of a War on Terrorism                    September 2001 testimony by the Director of RAND Washington office before the Subcommittee on Terrorism and Homeland Security of the House Permanent Select Committee on Intelligence of the US House of Representatives.
       Added to:         [Research Institutes: Extremism/Terrorism]          [Terrorism Documents]     
       (ID 10031)      
    
       Bioterrorism: Review of Public Health Preparedness Programs                    October 2001 testimony before the Subcommittee on Oversight and Investigations of the Committee on Energy and Commerce of the US House of Representatives into the country's preparedness for a bioterrorist attack.
       Added to:         [Counterterrorism]          [Chemical and Biological Terrorism]     
       (ID 10030)      
    
       Report of the Joint Inquiry into the Terrorist Attacks of September 11, 2001                    December 2002 report of the Senate Select Committee on Intelligence and the House Permanent Select Committee on Intelligence on the activities of the US intelligence community in connection with the terrorist attacks of September 11, 2001.
       Added to:         [Counterterrorism]          [Terrorist Attacks]          [Terrorism Documents]     
       (ID 10029)      
    
       Building Intelligence to Fight Terrorism                    Policy brief by the Brookings Institution arguing for new intelligence structures to combat the threat of terrorism.
       Added to:         [Counterterrorism]          [Terrorism Policy]     
       (ID 10028)      
    
       Terrorism: Documents and Links                             Documents and links compiled by the Institute for International Law at the Katholike Universiteit at Leuven, Leuven, Belgium.
       Added to:         [Organized Crime]          [Terrorism Documents]     
       (ID 10027)      
    
       US Patriot Act                    Complete text of the US Patriot Act, which expands the freedom of action given to law enforcement and intelligence gathering organizations.
       Added to:         [Counterterrorism]          [Terrorism Documents]     
       (ID 10026)      
    
       Counter-Terrorism: Training and Resources for Law Enforcement                                               Website set up by the US Department of Justice to examine counterterrorism tools available to law enforecement organizations and emergency services. Includes access to internal and external publications on a range of terrorism-related issues as well as to US government legislation.
       Added to:         [Counterterrorism]          [Terrorism Documents]          [Terrorism Policy]     
       (ID 10025)      
    
       Terrorist Attack and Emergency Planning Information, by the US Department of Justice (DOJ)                                      This site provides a list of statements by the Attorney General as well as legal documents and press releases on antiterrorist cases.
       Added to:         [Counterterrorism]          [Terrorism Documents]     
       (ID 10024)      
    
       Global Programme against Terrorism: Momentum for Increased International Action against Terrorism                             This site, provided by the UN Office on Drugs and Crime, offers links to the UN conventions, resolutions, and protocols related to terrorism and information on the UN bodies dealing with terrorism.
       Added to:         [Counterterrorism]          [Terrorism Documents]     
       (ID 10023)      
    
       International Convention for the Suppression of Terrorist Bombings                    This site is maintained by the UN Office on Drugs and Crime and provides the text of the convention.
       Added to:         [Terrorism Documents]     
       (ID 10022)      
    
       International Convention for the Suppression of the Financing of Terrorism                    The official UN site provides the text of the convention adopted by the General Assembly of the UN in resolution 54/109 of 9 December 1999.
       Added to:         [Terrorist Financing]     
       (ID 10021)      
    
       Suicide Terrorism: An Overview                    Article of 15 February 2000 provided by the Israeli International Policy Institute (ICT) considering the definition and characteristics of a suicide attack, how it benefits the perpetrators, and what can be done to stop this phenomenon.
       Added to:         [Suicide Terrorism]     
       (ID 10020)      
    
       Suicide Terrorism: Development and Characteristics                    Transcript of a lecture presented at the International Conference on Countering Suicide Terrorism at the International Policy Institute (ICT), Herzeliya, Israel on 21 February 2000. The author explores the history of this tactic and the groups that use it to their effect.
       Added to:         [Counterterrorism]          [Terrorist Groups, Organizations, and Networks]          [Suicide Terrorism]     
       (ID 10019)      
    
       Sucide Terrorism: A Global Threat, by Jane's Intelligence Review                    Article of 20 October 2000 arguing that the threat of suicide terrorism is not a phenomenon limited to the Middle East but is prevalent throughout the globe. The author explores the groups that have employed this tactic, their motivations and operations, and state response.
       Added to:         [Counterterrorism]          [Terrorist Groups, Organizations, and Networks]          [Suicide Terrorism]     
       (ID 10018)      
    
       National Memorial Institute for the Prevention of Terrorism (MIPT), Oklahoma City, US                    Organization dedicated to preventing terrorism and mitigating its effects. Particular emphasis is placed on the needs of emergency services to cope with terrorist incidents. The site also has resources on a number of subjects including bioterrorism, counteterrorism, and transport security.
       Added to:         [Counterterrorism]     
       (ID 6478)      
    
       The Foundation for the Defense of Democracies                    Organization conducting research on terrorism and global efforts to combat it. The site offers access to the center's publications, media articles, and white papers. These examine the historical, cultural, philosophical, and ideological factors that have given rise to modern terrorist movements.
       Added to:         [Counterterrorism]     
       (ID 10017)      
    
       Responding to the Bombings, by the US Information Agency                    Special Report containing official texts and commentary on the US embassy bombings in Kenya and Tanzania on 7 August 1998. Documents are arranged in chronological order.
       Added to:         [Terrorist Attacks]     
       (ID 10016)      
    
       Shattered Diplomacy: The US Embassy Bombing Trial, by CNN                             Trial reports, transcripts, and related news stories relating to the 1998 US embassy bombings in Kenya and Tanzania.
       Added to:         [Terrorist Attacks]     
       (ID 10015)      
    
       The Unabomb Case, by CNN                             Interactive resource on the crimes, capture, and trial of the Unabomber, Theodore Kaczynski. Documents available include complete trial transcripts and the Unabomber's manifesto, Industrial Society and its Future.
       Added to:         [Terrorist Attacks]     
       (ID 10014)      
    
       Attack on the USS Cole: IIP Archives, by the US Department of State                             Transcripts of US State Department, Pentagon, and White House briefings related to the attack on the USS Cole, arranged in chronological order.
       Added to:         [Terrorist Attacks]     
       (ID 10013)      
    
       DoD USS Cole Commission Report, by the US Department of Defense                    Report of 9 January 2001 on the attack on USS COLE (DDG 67) in the port of Aden, Yemen, on 12 October 2000. Includes the commission's unclassified findings and recommendations.
       Added to:         [Terrorist Attacks]     
       (ID 10012)      
    
       Targeting Terrorist Funds, by the UK Home Office                    This site provides information on UK policies to cut terrorists off from their funds and on what the government achieved so far.
       Added to:         [Terrorist Financing]     
       (ID 10011)      
    
       Terrorist Groups, by the UK Home Office                    This UK government site provides information on terrorist groups outlawed in the UK. The list includes in addition to 25 international terrorist organizations 14 Irish groups.
       Added to:         [Terrorist Groups, Organizations, and Networks]     
       (ID 10010)      
    
       Terrorism, by the UK Home Office                             Includes information on government initiatives to combat terrorist threats, anti-terror legislation, and answers to frequently asked questions about the threat and the government's precautions.
       Added to:         [Terrorism Policy]     
       (ID 10009)      
    
       Center for the Study of Bioterrorism (CSB) at the Saint Louis University School of Public Health                             Provides research and public healthcare information as well as reference materials for biological terrorism preparedness.
       Added to:         [Chemical and Biological Terrorism]     
       (ID 10008)      
    
       International Counterterrorist and Hostage Rescue Operations                    Detailed accounts of counterrorist and hostage rescue operations throughout the world from 1964 to the present day.
       Added to:         [Counterterrorism]          [Terrorism History]     
       (ID 10007)      
    
       Turkish Terrorism Site                    Turkish site offering information on all aspects of terrorism including terrorist organizations in Turkey and across the world, their connection with international drug trafficking, the impact of terrorism on youth, and international counteterrorism efforts.
       Added to:         [Turkey]          [Turkey]          [Turkey]          [Turkey]          [Terrorist Groups, Organizations, and Networks]     
       (ID 10006)      
    
       Terrorism: Motivations and Causes, by the Canadian Security Intelligence Service (CSIS)                    Essay of January 1995 differentiating between right-wing and left-wing terrorism and terrorism in Europe, Africa, and the Middle East and explaining four basic motivations for terrorism in the Middle East.
       Added to:         [Terrorist Groups, Organizations, and Networks]          [Political/Ideological Terrorism]          [Religious Terrorism]     
       (ID 10005)      
    
       Significant Terrorist Incidents, 1961-2001: A Brief Chronology, by the US Department of State                    This site provides a listing of major terrorist incidents and a short description of them.
       Added to:         [Terrorism History]     
       (ID 10004)      
    
       Definitions of Terrorism                    This site, provided by the UN Office on Drugs and Crime, offers different definitions of terrorism.
       Added to:         [Terrorism Theory]     
       (ID 10003)      
    
       Bioterrorism: Legal Issues                             This site, provided by the University of Pittsburgh's School of Law, offers information on international and US law on biological terrorism.
       Added to:         [Chemical and Biological Terrorism]          [Terrorism Documents]     
       (ID 10002)      
    
       Terrorism Law and Policy                             This site is maintained by the School of Law of the University of Pittsburgh and provides access to world and specially US antiterrorism and counterterrorism laws and policies.
       Added to:         [Research Institutes: Extremism/Terrorism]          [Terrorism Policy]     
       (ID 6232)      
    
       Perspectives on Terrorism: Defining the Line                    This site is maintained by the Christian Science Monitor and examines the difficulty of applying a concrete definition to terrorism.
       Added to:         [Terrorism Theory]     
       (ID 10001)      
    
       The Sociology and Psychology of Terrorism: Who Becomes a Terrorist and Why?                    Report of September 1999 prepared under an interagency agreement by the Federal Research Division of the Library of Congress. The report considers how and why people turn to terrorism and focuses on the psychological and sociological characteristics of terrorists of different generations.
       Added to:         [Psychology of Terrorism]     
       (ID 9999)      
    
       Terrorism and Homeland Security                    This site, maintained by Rand, includes access to all of the institutes unclassified research as well as media articles by Rand experts.
       Added to:         [Research Institutes: Extremism/Terrorism]     
       (ID 9997)      
    
       Bioterrorism                    This site, provided by the CATO Institute, offers studies, opinion and commentary, television appearances, and events related to biological terrorism.
       Added to:         [Chemical and Biological Terrorism]     
       (ID 9996)      
    
       After September 11 Archive                    This site is maintained by the Social Science Research Council (SSRC) and provides research articles and essays on terrorism and economy and the potential new world order.
       Added to:         [Terrorism and the Economy]     
       (ID 9995)      
    
       Terrorism and the Economy                    This site, maintained by the CATO Institute, provides opinions and commentaries on the terrorism and its economic consequences.
       Added to:         [Terrorism and the Economy]     
       (ID 9994)      
    
       Perspectives from the Social Science                    A collection of articles and essays published by the Social Science Research Council (SSRC). Subjects considered include globalization, fundametalism, terrorism and democratic virtue, and the onset of a new world order.
       Added to:         [Research Institutes: Extremism/Terrorism]          [Research Institutes]          [Political/Ideological Terrorism]     
       (ID 7000)      
    
       Understanding Suicide Terrorism                    Article investigating the social factors underlying suicide attacks and the recruitment of suicide bombers. The author argues that suicide bombers have no appreciable psychopathology and are as educated as the surrounding population.
       Added to:         [Suicide Terrorism]     
       (ID 9993)      
    
       Inside the Terror Network, by PBS Frontline                    Special report on the September 11 attacks. The report investigates US failures to detect the September 11 plot as well as the origins and organization of the Al Qaeda network. It also includes biographies of some of the terrorists involved and interviews with FBI counteterrorism experts.
       Added to:         [Counterterrorism]          [Terrorist Groups, Organizations, and Networks]     
       (ID 9992)      
    
       Terrorism in Focus                             Special report by the Foreign Policy Association (FPA). This site provides news, commentary, and information on the definition, etymology, historical background, and types of terrorism.
       Added to:         [Terrorism Theory]     
       (ID 9991)      
    
       The making of the worlds most wanted man, by The Guardian                    Article of 28 October 2001 tracing the development of Osama bin Laden from his youth to leadership of the Al Qaeda network.
       Added to:         [Media Information]          [Terrorist Groups, Organizations, and Networks]     
       (ID 9990)      
    
       War on Terror, by the Washington Post                    A complete archive of news and opinion articles on the September 11 attacks and the continuing war on terror. The site also offers audio, video, and photo galleries of the New York and Washington attacks as well as a graphics archive.
       Added to:         [Counterterrorism]          [Media Information]          [Terrorist Attacks]          [Political/Ideological Terrorism]          [Religious Terrorism]     
       (ID 9989)      
    
       Jihad Against Jews and Crusaders                    This site, maintained by the Federation of American Scientists, offers a statement from Osama bin Laden, which authorizes the killing of Americans, both civilian and military, as part of a holy war. This statement forms part of the evidence linking bin Laden to the September 11 terrorist attacks.
       Added to:         [Terrorist Groups, Organizations, and Networks]          [Terrorism Documents]          [Political/Ideological Terrorism]          [Religious Terrorism]     
       (ID 9988)      
    
       The National Security Archive: The September 11 Sourcebooks                    Documents from the National Security Archives arranged by topic. Subjects include the attacks of 11 September 2001, the war in Afghanistan, the Taliban, and the hunt for Osama Bin Laden.
       Added to:         [Research Institutes: Extremism/Terrorism]          [Research Institutes]          [Terrorism Documents]          [Political/Ideological Terrorism]          [Religious Terrorism]     
       (ID 9987)      
    
       Topical Index: Terrorism                    Commentaries, policy papers, and reports on all aspects of terrorism, provided by Foreign Policy in Focus. The articles, produced by the think tank's foreign policy analysts, are arranged by date.
       Added to:         [Research Institutes: Extremism/Terrorism]     
       (ID 9986)      
    
       Centre for the Study of Terrorism and Political Violence at the University of St Andrews                             Established in 1994, the center aims to investigate the roots of terrorism and political violence and to study its impact at societal, governmental, and international levels. The site includes links to the center's research projects and publications.
       Added to:         [United Kingdom]          [Research Institutes: Extremism/Terrorism]          [Extremism/Terrorism]     
       (ID 4784)      
    
       Background Information on Terrorist Groups                    A brief description of groups designated as foreign terrorist organizations on 8 October 1997 by the US Department of State. Includes information on their activities, areas of operations, strength, and external aid if known.
       Added to:         [Terrorist Groups, Organizations, and Networks]     
       (ID 9985)      
    
       This is Baader Meinhof - Germany in the Post-War Decade of Terror 1968-1977                    Information resource on the West-German terrorist group Baader Meinhof. This site includes detailed profiles of the group's members, communiqués, and a timeline of their activities and attacks.
       Added to:         [Terrorist Attacks]          [Terrorist Groups, Organizations, and Networks]          [Political/Ideological Terrorism]     
       (ID 9984)      
    
       World Terrorist Attacks and Organizations                             Information resource provided by the Washington Post Online. Users can access articles and information on terrorist incidents and attacks, terrorist organzaitions, and the activities of individual terrorists. A keyword search is also provided.
       Added to:         [Terrorist Attacks]          [Terrorist Groups, Organizations, and Networks]     
       (ID 9983)      
    
       Terrorism: Questions and Answers                             Website run by the Council of Foreign relations provides basic information on topics such as terrorist groups, state-sponsored terrorism, and anti-terror policy.
       Added to:         [Counterterrorism]          [Terrorist Groups, Organizations, and Networks]          [State-Sponsored Terrorism]     
       (ID 8635)      
    
       War on Terrorism                             Terrorism news aggregator with additional information on terrorist organizations, the historical development of terrorism, and the relationship between terrorism and drug traffiking.
       Added to:         [Terrorism History]          [Terrorist Groups, Organizations, and Networks]     
       (ID 9982)      
    
       A Response to the Actions and Polices of the Afghan Taliban                    Communication from US President Bill Clinton of July 1999 on the threat posed by the actions and policies of Afghan Taliban to the security and policy of the US and government actions thereof.
       Added to:         [Counterterrorism]          [Terrorist Groups, Organizations, and Networks]          [Terrorism Documents]          [Political/Ideological Terrorism]          [Religious Terrorism]     
       (ID 9981)      
    
       Combating Terrorism: Interagency Framework and Agency Programs to Address the Overseas Threat                    May 2003 Report by the US General Accounting Office (GAO) tasked with toverseeing federal programs to combat terrorism overseas. The report describes the programs and activities to detect and prevent terrorist attacks, disrupt and destroy terrorist organizations, and respond to terrorist incidents.
       Added to:         [Counterterrorism]     
       (ID 9980)      
    
       The Campaign Against International Terrorism: Prospects After the Fall of the Taliban                    Research paper published by the International Affairs and Defence Section of the UK House of Commons Library. Provides an update on developments in the campaign against terrorism between 31 October qnd 10 December 2001.
       Added to:         [Counterterrorism]          [Terrorism Documents]     
       (ID 9979)      
    
       11 September 2001: The Response                    This research paper is published by the International Affairs and Defence Section of the UK House of Commons Library and examines the reaction within the US, the UK, and the international community to the terrorist attacks of 11 September.
       Added to:         [Counterterrorism]          [Terrorism Documents]          [Political/Ideological Terrorism]          [Religious Terrorism]     
       (ID 9978)      
    
       Office of the Coordinator for Counterterrorism                             This old US State Department website is a permanent electronic archive of information released prior to 20 January 2001. This site provides reports, documents, and statements related to terrorism.
       Added to:         [Counterterrorism]          [Terrorism Documents]          [Terrorism Policy]     
       (ID 9977)      
    
       US Government Information                    This site, maintained by the US Government Information Division of the Oklahoma Department of Libraries (ODL), provides an annotated bibliography of US government documents related to the threat of terrorism and the attacks of 11 September 2001.
       Added to:         [Terrorism Documents]     
       (ID 9976)      
    
       Response to Terrorist Attacks: Al Qaeda Training Material                    This site, provided by the US Department of Justice (DOJ), offers extracts from an Al Qaeda training manual found by Manchester Police during a search of a member's home.
       Added to:         [Terrorist Groups, Organizations, and Networks]          [Terrorism Documents]          [Strategies of Terrorism]          [Political/Ideological Terrorism]          [Religious Terrorism]     
       (ID 9975)      
    
       De Hoop Scheffer for top NATO job, by Radio Netherlands                    This site offers information on the nomination of Dutch Foreign Minister Jaap de Hoop Scheffer as NATO Secretary-General and on the challenges he will face.
       Added to:         [NATO Secretary-General]     
       (ID 9972)      
    
       Press Statement by NATO Secretary General, Jaap de Hoop Scheffer, by NATO                    This NATO site provides a press statement by NATO Secretary-General Jaap de Hoop Scheffer, given upon his taking up his appointment as Secretary-General on 5 January 2004.
       Added to:         [NATO Secretary-General]     
       (ID 9971)      
    
       NATO Secretary General                    This site, maintained by NATO, provides the biography of the NATO Secretary-General.
       Added to:         [NATO Secretary-General]     
       (ID 9970)      
    
       The Secretary General                             This official NATO site provides background information on the responsibilities of the NATO Secretary-General.
       Added to:         [NATO Secretary-General]     
       (ID 9969)      
    
       New Secretary-General takes up office, by NATO                             This official NATO site provides an article on the takeover of new NATO Secretary-General Jaap de Hoop Scheffer of the Netherlands, who took up his duties on 5 January 2004, beginning an initial four-year term in office.
       Added to:         [NATO Secretary-General]     
       (ID 9968)      
    
       Irish EU Presidency 2004                    This paper, provided by Trócaire, outlines the practical steps the Irish government could undertake to build the momentum within the EU to meet the UNs Millennium Development Goals during its term as EU president.
       Added to:         [EU Presidency]     
       (ID 9967)      
    
       EU Presidencies: Dossier                             This site is maintained by Europe's Forum on International Cooperation (euforic) and offers a list of the EU legislation that is expected to come up during the Irish EU presidency, a list of the succeeding presidencies, and information on the preceding presidency.
       Added to:         [EU Presidency]     
       (ID 9966)      
    
       Dóchas: The Irish Association of Non-Governmental Development Associations, Dublin, Ireland                             An umbrella organisation of Irish NGOs involved in overseas development and education. Seeks to make human security a priority for the EU presidency.
       Added to:         [Ireland]          [NGOs Specialized in Security Issues]          [NGOs: Sustainable Development]          [Western Europe]          [Human Security]     
       (ID 9866)      
    
       Dóchas: The Irish Association of Non-Governmental Development Associations, Dublin, Ireland                             Dóchas is the umbrella organization of Irish NGOs. It runs the EU Presidency Project, aimed at influencing EU and Irish government policy in preparation for, and during, the Irish EU Presidency with a view to promoting human security and human rights.
       Added to:         [EU Presidency]     
       (ID 9965)      
    
       Priorities of the Irish Presidency                    Speech by the Irish Minister of Foreign Affairs on the challenges the country faces holding the EU presidency for the sixth time.
       Added to:         [EU Presidency]     
       (ID 9964)      
    
       Votes crisis hangs over Ireland's EU presidency, by The Guardian                    Article of 2 January 2004 on Ireland's EU presidency, which commenced on 1 January 2004.
       Added to:         [EU Presidency]     
       (ID 9963)      
    
       Europeans - Working Together. Programme of the Irish Presidency                    This official EU site offers information on the priorities for Ireland's presidency of the EU.
       Added to:         [EU Presidency]     
       (ID 9962)      
    
       12th SAARC Summit                    This site, maintained by the Indian Ministry of External Affairs, offers information on the summit of the South Asian Association for Regional Cooperation (SAARC) and talks between India and Pakistan. The site offers press briefings and statements by Indian Prime Minister Atal Bihari Vajpayee.
       Added to:         [Peace Talks]     
       (ID 9961)      
    
       'Wonderful news' coming out of India-Pakistan talks - Annan, by the UN News Centre                    Article of 6 January 2004 consisting mainly of statements by UN secretary-general Kofi Annan on the summit talks between India and Pakistan.
       Added to:         [Peace Talks]     
       (ID 9960)      
    
       OSCE Chairman-in-Office welcomes peaceful and orderly Georgian presidential elections                             This article, provided by the Organization for Security and Co-operation in Europe, offers information on the extraordinary presidential elections in Georgia of 4 January 2004, which were held in a peaceful and orderly manner.
       Added to:         [Presidential Elections: Georgia]     
       (ID 9959)      
    
       India and Pakistan announce peace talks, by The Guardian                             Article of 6 January 2004 on the joint statement of India and Pakistan to schedule peace talks for February 2004 to find an agreement on Kashmir.
       Added to:         [Peace Talks]     
       (ID 9958)      
    
       12th SAARC Summit Islamabad                    This site, maintained by the Pakistani news provider The News, offers information on the summit of the South Asian Association for Regional Cooperation (SAARC), in particular on the meeting between the leaders of nuclear-armed rivals India and Pakistan, which has been welcomed by the UN and the US.
       Added to:         [Peace Talks]     
       (ID 9957)      
    
       India, Pak agree to resume composite dialogue in Feb, by the Hindustan Times                    Article of 6 January 2004 on the agreement between India and Pakistan to begin a dialog on Kashmir and Jammu. The site also offers joint statements by the two countries and information on previous talks between India and Pakistan.
       Added to:         [Peace Talks]     
       (ID 9956)      
    
       Jammu and Kashmir: The Conflict Explained                    This interactive guide, maintained by the Guardian Unlimited, offers maps of the conflict region, showing which areas exactly are disputed and under whose control they are and information on the history of the conflict.
       Added to:         [Kashmir Crisis]     
       (ID 9954)      
    
       Special Report Kashmir, by the Guardian Unlimited                             This site offers latest news, a photo gallery, links to information from Pakistani and from Indian perspectives, archived articles on Kashmir, general information on the two countries, and a section with key questions answered.
       Added to:         [Kashmir Crisis]     
       (ID 9953)      
    
       Landslide poll win for Georgian firebrand, by The Guardian                    This news article of 5 January 2004 provides background information on the Georgian presidential elections of 4 January 2004 and includes statements by the former and new presidents.
       Added to:         [Presidential Elections: Georgia]     
       (ID 9952)      
    
       A rose in winter, by The Guardian                             Article of 6 January 2004 on the difficult economic, political, and social situation Georgian President Mikhail Saakashvili will encounter.
       Added to:         [Presidential Elections: Georgia]     
       (ID 9951)      
    
       Moscow watches warily as Saakashvili comes to power, by Radio Free Europe                    Article of 5 January 2004 that argues that Moscow is wary of Georgian President Mikhail Saakashvili, a US-educated lawyer who is openly pro-Western in his views.
       Added to:         [Presidential Elections: Georgia]     
       (ID 9950)      
    
       Saakashvili secures presidency amid heavy turnout in Georgia, by Eurasianet                    Article of 5 January 2004 on the presidential elections of the previous day, providing background information, statements by the new president, and pictures.
       Added to:         [Presidential Elections: Georgia]     
       (ID 9948)      
    
       Preliminary Results of the Presidential Election 2004                    This site, maintained by the Central Election Commission (CEC) of Georgia, offers the results of the presidential election and information on the number of voters, on Georgian legislation, on the candidates, and on the members of the CEC. It also offers a list of Georgian elections since 1998.
       Added to:         [Presidential Elections: Georgia]     
       (ID 9949)      
    
       2003 im Rückblick: Das Jahr der Viren und Würmer, by Spiegel online                    Article of 28 December 2003, recalling the most important events in the IT world of the past year. (German only)
       Added to:         [Latest News]     
       (ID 9946)      
    
       Cyber-terror is here for real, by Aljazeera.Net                    Article of 12 December 2003, re-edited by the Overseas Security Advisory Council (OSAC), dealing with teams of computer hackers aiming to maximize the death toll in armed attacks by paralyzing the emergency rescue services.
       Added to:         [Previous Cyber Terrorism Reports]     
       (ID 9945)      
    
       Action against Terrorism Unit, by the Organization for Security and Co-operation in Europe (OECD)                    This site provides information on the organization's projects related to terrorism, including feature stories and the latest documents.
       Added to:         [Counterterrorism]          [Terrorism Policy]     
       (ID 9942)      
    
       Global Programme against Terrorism, by the UN Office on Drugs and Crime                             This site provides information on the activities of the program and links to related sites.
       Added to:         [Counterterrorism]          [Terrorism Policy]     
       (ID 9941)      
    
       UN Action against Terrorism: Declarations                    This site offers UN declarations on terrorism.
       Added to:         [Terrorism Documents]     
       (ID 9940)      
    
       United Nations Conventions on Terrorism                    This official UN site provides the full text versions of the UN conventions related to terrorism.
       Added to:         [Terrorism Documents]     
       (ID 9939)      
    
       Fight against Terrorism, by the Council of Europe                             This site provides information on the priority areas for further action by the Council of Europe, on the Committee of Experts on Terrorism (CODEXTER), and on the Multidisciplinary Group on International Action Against Terrorism (GMT).
       Added to:         [Counterterrorism]          [Terrorism Policy]     
       (ID 9938)      
    
       Al-Qaida's WMD Activities, by the Center for Nonproliferation Studies at the Monterey Institute of International Studies                    This site offers a listing of reports concerning al-Qaida's involvement with chemical, biological, radiological, and nuclear weapons in the period between 1997 and December 2002.
       Added to:         [Terrorist Groups, Organizations, and Networks]          [Political/Ideological Terrorism]          [Religious Terrorism]     
       (ID 9937)      
    
       Al-Qaida, by the Center for Nonproliferatiuon Studies at the Monterey Institute for International Studies                             This site provides information on the militant islamist group, which seeks to replace Western-influenced governments by islamic regimes and whose leader, Usama bin Laden, declared holy war on the US. The site also offers information on the group's resources, military equipment, and tactics.
       Added to:         [Terrorist Groups, Organizations, and Networks]          [Political/Ideological Terrorism]          [Religious Terrorism]     
       (ID 9936)      
    
       Islamic Movement of Uzbekistan (IMU), by the Center for Nonproliferation Studies (CNS) at the Monterey Institute of International Studies                             This militant pan-islamist group, also known as Islamic Party of Turkestan, wants to create an Islamic state in all of Central Asia. This site provides information on the leaders of the group, the group's activities, and links to more resources on the topic.
       Added to:         [Terrorist Groups, Organizations, and Networks]          [Religious Terrorism]     
       (ID 9935)      
    
       Al-Jihad al-Islami, by the Center for Nonproliferation Studies (CNS) at the Monterey Institute of International Studies                             This fundamentalist religious group with the principal aim to overthrow the Egyptian government and replace it with an Islamic state is also known as Egyptian Islamic Jihad, al-Jihad, Islamic Jihad or Jihad Group. The site offers a description of the group and its activities.
       Added to:         [Terrorist Groups, Organizations, and Networks]          [Religious Terrorism]     
       (ID 9934)      
    
       Al-Gama'a al-Islamiyya, by the Center for Nonproliferation Studies (CNS) at the Monterey Institute of International Studies                             This site provides information on the militant islamist group Al-Gama'a al-Islamiyya, also known as Islamic Group, which was founded in the 1970s in Egypt. The website offers information on the group's ideology, leader, group ties and links to more resources on the topic.
       Added to:         [Terrorist Groups, Organizations, and Networks]          [Religious Terrorism]     
       (ID 9933)      
    
       Counter-Terrorism Committee (CTC)                             The CTC is made up of all 15 members of the UN Security Council and aims to increase the capability of states in fighting terrorism. This site offers information on the CTC's practices and documents and papers on international cooperation on counterterrorism.
       Added to:         [Counterterrorism]     
       (ID 9932)      
    
       Terrorist Financing, by the Financial Action Task Force (FATF) on Money Laundering, Paris, France                    This site provides an introduction to terrorist financing, FATF documents, and the FATFs action plan against terrorist financing.
       Added to:         [Terrorist Financing]     
       (ID 9931)      
    
       The Bioterrorism Act of 2002, by the US Food and Drug Administration                    The US Congress responded to the terrorist attacks of 11 September 2001 by passing the Public Health Security and Bioterrorism Preparedness and Response Act of 2002 (the Bioterrorism Act). This site offers the complete text of the act and information for plans to implementing the act.
       Added to:         [Chemical and Biological Terrorism]     
       (ID 9930)      
    
       Agents, Diseases, and Threats                             This site, provided by the Center for Disease Control and Prevention (CDC), offers information on biological and chemical agents, diseases, and threats in alphabetical order.
       Added to:         [Chemical and Biological Terrorism]     
       (ID 9929)      
    
       Agro-terrorism, by the Center for Nonproliferation Studies (CNS) at the Monterey Institute of International Studies                             This site provides a chronology of attacks and incidents of deliberate use of chemical or biological weapons, information on states that have developed or are suspected of developing biological agents, and links to more articles, papers, and documents on the topic.
       Added to:         [Chemical and Biological Terrorism]     
       (ID 9928)      
  	
              	         
   	   
      

 About ISN	   | 	  	  | 	  ISN News	   | 	  ISN Partner Network	   | 	  Jobs @ ISN	   
 	   
  	    	   

   1996-2003 ISN, Center for Security Studies, ETH Zurich, Switzerland, webmaster@sipo.gess.ethz.ch
     The ISN cannot be held responsible for the content of the sites to which it provides links or for the availability of servers or links.  

   	  
 